; ModuleID = '55/408.cpp'
source_filename = "55/408.cpp"
target datalayout = "e-m:e-p270:32:32-p271:32:32-p272:64:64-i64:64-f80:128-n8:16:32:64-S128"
target triple = "x86_64-pc-linux-gnu"

%"class.std::ios_base::Init" = type { i8 }
%"class.std::basic_istream" = type { i32 (...)**, i64, %"class.std::basic_ios" }
%"class.std::basic_ios" = type { %"class.std::ios_base", %"class.std::basic_ostream"*, i8, i8, %"class.std::basic_streambuf"*, %"class.std::ctype"*, %"class.std::num_put"*, %"class.std::num_get"* }
%"class.std::ios_base" = type { i32 (...)**, i64, i64, i32, i32, i32, %"struct.std::ios_base::_Callback_list"*, %"struct.std::ios_base::_Words", [8 x %"struct.std::ios_base::_Words"], i32, %"struct.std::ios_base::_Words"*, %"class.std::locale" }
%"struct.std::ios_base::_Callback_list" = type { %"struct.std::ios_base::_Callback_list"*, void (i32, %"class.std::ios_base"*, i32)*, i32, i32 }
%"struct.std::ios_base::_Words" = type { i8*, i64 }
%"class.std::locale" = type { %"class.std::locale::_Impl"* }
%"class.std::locale::_Impl" = type { i32, %"class.std::locale::facet"**, i64, %"class.std::locale::facet"**, i8** }
%"class.std::locale::facet" = type <{ i32 (...)**, i32, [4 x i8] }>
%"class.std::basic_ostream" = type { i32 (...)**, %"class.std::basic_ios" }
%"class.std::basic_streambuf" = type { i32 (...)**, i8*, i8*, i8*, i8*, i8*, i8*, %"class.std::locale" }
%"class.std::ctype" = type <{ %"class.std::locale::facet.base", [4 x i8], %struct.__locale_struct*, i8, [7 x i8], i32*, i32*, i16*, i8, [256 x i8], [256 x i8], i8, [6 x i8] }>
%"class.std::locale::facet.base" = type <{ i32 (...)**, i32 }>
%struct.__locale_struct = type { [13 x %struct.__locale_data*], i16*, i32*, i32*, [13 x i8*] }
%struct.__locale_data = type opaque
%"class.std::num_put" = type { %"class.std::locale::facet.base", [4 x i8] }
%"class.std::num_get" = type { %"class.std::locale::facet.base", [4 x i8] }

@_ZStL8__ioinit = internal global %"class.std::ios_base::Init" zeroinitializer, align 1
@__dso_handle = external hidden global i8
@_ZSt3cin = external dso_local global %"class.std::basic_istream", align 8
@.str = private unnamed_addr constant [5 x i8] c" %1c\00", align 1
@.str.1 = private unnamed_addr constant [4 x i8] c"%1c\00", align 1
@_ZSt4cout = external dso_local global %"class.std::basic_ostream", align 8
@.str.2 = private unnamed_addr constant [3 x i8] c"%c\00", align 1
@llvm.global_ctors = appending global [1 x { i32, void ()*, i8* }] [{ i32, void ()*, i8* } { i32 65535, void ()* @_GLOBAL__sub_I_408.cpp, i8* null }]

; Function Attrs: noinline uwtable
define internal void @__cxx_global_var_init() #0 section ".text.startup" {
  call void @_ZNSt8ios_base4InitC1Ev(%"class.std::ios_base::Init"* @_ZStL8__ioinit)
  %1 = call i32 @__cxa_atexit(void (i8*)* bitcast (void (%"class.std::ios_base::Init"*)* @_ZNSt8ios_base4InitD1Ev to void (i8*)*), i8* getelementptr inbounds (%"class.std::ios_base::Init", %"class.std::ios_base::Init"* @_ZStL8__ioinit, i32 0, i32 0), i8* @__dso_handle) #3
  ret void
}

declare dso_local void @_ZNSt8ios_base4InitC1Ev(%"class.std::ios_base::Init"*) unnamed_addr #1

; Function Attrs: nounwind
declare dso_local void @_ZNSt8ios_base4InitD1Ev(%"class.std::ios_base::Init"*) unnamed_addr #2

; Function Attrs: nounwind
declare dso_local i32 @__cxa_atexit(void (i8*)*, i8*, i8*) #3

; Function Attrs: noinline norecurse uwtable
define dso_local i32 @main() #4 {
  %1 = alloca i32, align 4
  %2 = alloca i32, align 4
  %3 = alloca [500 x i32], align 16
  %4 = alloca i32, align 4
  %5 = alloca i32, align 4
  %6 = alloca i32, align 4
  %7 = alloca i32, align 4
  %8 = alloca i64, align 8
  %9 = alloca i32, align 4
  store i32 0, i32* %1, align 4
  store i64 0, i64* %8, align 8
  %10 = call dereferenceable(280) %"class.std::basic_istream"* @_ZNSirsERi(%"class.std::basic_istream"* @_ZSt3cin, i32* dereferenceable(4) %4)
  %11 = call i32 (i8*, ...) @__isoc99_scanf(i8* getelementptr inbounds ([5 x i8], [5 x i8]* @.str, i64 0, i64 0), i32* %6)
  br label %12

12:                                               ; preds = %61, %0
  %13 = load i32, i32* %6, align 4
  %14 = icmp sge i32 %13, 48
  br i1 %14, label %15, label %18

15:                                               ; preds = %12
  %16 = load i32, i32* %6, align 4
  %17 = icmp sle i32 %16, 57
  br i1 %17, label %32, label %18

18:                                               ; preds = %15, %12
  %19 = load i32, i32* %6, align 4
  %20 = icmp sge i32 %19, 65
  br i1 %20, label %21, label %24

21:                                               ; preds = %18
  %22 = load i32, i32* %6, align 4
  %23 = icmp sle i32 %22, 90
  br i1 %23, label %32, label %24

24:                                               ; preds = %21, %18
  %25 = load i32, i32* %6, align 4
  %26 = icmp sge i32 %25, 97
  br i1 %26, label %27, label %30

27:                                               ; preds = %24
  %28 = load i32, i32* %6, align 4
  %29 = icmp sle i32 %28, 122
  br label %30

30:                                               ; preds = %27, %24
  %31 = phi i1 [ false, %24 ], [ %29, %27 ]
  br label %32

32:                                               ; preds = %30, %21, %15
  %33 = phi i1 [ true, %21 ], [ true, %15 ], [ %31, %30 ]
  br i1 %33, label %34, label %70

34:                                               ; preds = %32
  %35 = load i32, i32* %6, align 4
  %36 = icmp sge i32 %35, 48
  br i1 %36, label %37, label %43

37:                                               ; preds = %34
  %38 = load i32, i32* %6, align 4
  %39 = icmp sle i32 %38, 57
  br i1 %39, label %40, label %43

40:                                               ; preds = %37
  %41 = load i32, i32* %6, align 4
  %42 = sub nsw i32 %41, 48
  store i32 %42, i32* %2, align 4
  br label %43

43:                                               ; preds = %40, %37, %34
  %44 = load i32, i32* %6, align 4
  %45 = icmp sge i32 %44, 65
  br i1 %45, label %46, label %52

46:                                               ; preds = %43
  %47 = load i32, i32* %6, align 4
  %48 = icmp sle i32 %47, 90
  br i1 %48, label %49, label %52

49:                                               ; preds = %46
  %50 = load i32, i32* %6, align 4
  %51 = sub nsw i32 %50, 55
  store i32 %51, i32* %2, align 4
  br label %52

52:                                               ; preds = %49, %46, %43
  %53 = load i32, i32* %6, align 4
  %54 = icmp sge i32 %53, 97
  br i1 %54, label %55, label %61

55:                                               ; preds = %52
  %56 = load i32, i32* %6, align 4
  %57 = icmp sle i32 %56, 122
  br i1 %57, label %58, label %61

58:                                               ; preds = %55
  %59 = load i32, i32* %6, align 4
  %60 = sub nsw i32 %59, 87
  store i32 %60, i32* %2, align 4
  br label %61

61:                                               ; preds = %58, %55, %52
  %62 = load i64, i64* %8, align 8
  %63 = load i32, i32* %4, align 4
  %64 = sext i32 %63 to i64
  %65 = mul nsw i64 %62, %64
  %66 = load i32, i32* %2, align 4
  %67 = sext i32 %66 to i64
  %68 = add nsw i64 %65, %67
  store i64 %68, i64* %8, align 8
  %69 = call i32 (i8*, ...) @__isoc99_scanf(i8* getelementptr inbounds ([4 x i8], [4 x i8]* @.str.1, i64 0, i64 0), i32* %6)
  br label %12

70:                                               ; preds = %32
  %71 = call dereferenceable(280) %"class.std::basic_istream"* @_ZNSirsERi(%"class.std::basic_istream"* @_ZSt3cin, i32* dereferenceable(4) %5)
  store i32 0, i32* %9, align 4
  br label %72

72:                                               ; preds = %77, %70
  %73 = load i64, i64* %8, align 8
  %74 = load i32, i32* %5, align 4
  %75 = sext i32 %74 to i64
  %76 = icmp sge i64 %73, %75
  br i1 %76, label %77, label %92

77:                                               ; preds = %72
  %78 = load i64, i64* %8, align 8
  %79 = load i32, i32* %5, align 4
  %80 = sext i32 %79 to i64
  %81 = srem i64 %78, %80
  %82 = trunc i64 %81 to i32
  %83 = load i32, i32* %9, align 4
  %84 = sext i32 %83 to i64
  %85 = getelementptr inbounds [500 x i32], [500 x i32]* %3, i64 0, i64 %84
  store i32 %82, i32* %85, align 4
  %86 = load i64, i64* %8, align 8
  %87 = load i32, i32* %5, align 4
  %88 = sext i32 %87 to i64
  %89 = sdiv i64 %86, %88
  store i64 %89, i64* %8, align 8
  %90 = load i32, i32* %9, align 4
  %91 = add nsw i32 %90, 1
  store i32 %91, i32* %9, align 4
  br label %72

92:                                               ; preds = %72
  %93 = load i64, i64* %8, align 8
  %94 = trunc i64 %93 to i32
  %95 = load i32, i32* %9, align 4
  %96 = sext i32 %95 to i64
  %97 = getelementptr inbounds [500 x i32], [500 x i32]* %3, i64 0, i64 %96
  store i32 %94, i32* %97, align 4
  %98 = load i32, i32* %9, align 4
  store i32 %98, i32* %6, align 4
  br label %99

99:                                               ; preds = %122, %92
  %100 = load i32, i32* %6, align 4
  %101 = icmp sge i32 %100, 0
  br i1 %101, label %102, label %125

102:                                              ; preds = %99
  %103 = load i32, i32* %6, align 4
  %104 = sext i32 %103 to i64
  %105 = getelementptr inbounds [500 x i32], [500 x i32]* %3, i64 0, i64 %104
  %106 = load i32, i32* %105, align 4
  %107 = icmp slt i32 %106, 10
  br i1 %107, label %108, label %114

108:                                              ; preds = %102
  %109 = load i32, i32* %6, align 4
  %110 = sext i32 %109 to i64
  %111 = getelementptr inbounds [500 x i32], [500 x i32]* %3, i64 0, i64 %110
  %112 = load i32, i32* %111, align 4
  %113 = call dereferenceable(272) %"class.std::basic_ostream"* @_ZNSolsEi(%"class.std::basic_ostream"* @_ZSt4cout, i32 %112)
  br label %121

114:                                              ; preds = %102
  %115 = load i32, i32* %6, align 4
  %116 = sext i32 %115 to i64
  %117 = getelementptr inbounds [500 x i32], [500 x i32]* %3, i64 0, i64 %116
  %118 = load i32, i32* %117, align 4
  %119 = add nsw i32 %118, 55
  %120 = call i32 (i8*, ...) @printf(i8* getelementptr inbounds ([3 x i8], [3 x i8]* @.str.2, i64 0, i64 0), i32 %119)
  br label %121

121:                                              ; preds = %114, %108
  br label %122

122:                                              ; preds = %121
  %123 = load i32, i32* %6, align 4
  %124 = add nsw i32 %123, -1
  store i32 %124, i32* %6, align 4
  br label %99

125:                                              ; preds = %99
  %126 = load i32, i32* %1, align 4
  ret i32 %126
}

declare dso_local dereferenceable(280) %"class.std::basic_istream"* @_ZNSirsERi(%"class.std::basic_istream"*, i32* dereferenceable(4)) #1

declare dso_local i32 @__isoc99_scanf(i8*, ...) #1

declare dso_local dereferenceable(272) %"class.std::basic_ostream"* @_ZNSolsEi(%"class.std::basic_ostream"*, i32) #1

declare dso_local i32 @printf(i8*, ...) #1

; Function Attrs: noinline uwtable
define internal void @_GLOBAL__sub_I_408.cpp() #0 section ".text.startup" {
  call void @__cxx_global_var_init()
  ret void
}


!llvm.module.flags = !{!0}
!llvm.ident = !{!1}

!0 = !{i32 1, !"wchar_size", i32 4}
!1 = !{!"clang version 10.0.0-4ubuntu1 "}
